target datalayout = "e-m:e-p270:32:32-p271:32:32-p272:64:64-i64:64-i128:128-f80:128-n8:16:32:64-S128"
target triple = "x86_64-pc-linux-gnu"

%struct.If_Obj_t_ = type { i32, i32, i32, i32, i32, i32, ptr, ptr, ptr, float, float, float, %union.anon, ptr, %struct.If_Cut_t_ }
%union.anon = type { ptr }
%struct.If_Cut_t_ = type <{ float, float, float, float, i32, i32, i32, i64, [0 x i32] }>
%struct.Vec_Ptr_t_ = type { i32, i32, ptr }

; Function Attrs: inlinehint nounwind uwtable
define internal ptr @If_ObjFanin1(ptr noundef %0) #3 {
  %2 = alloca ptr, align 8
  store ptr %0, ptr %2, align 8, !tbaa !41
  %3 = load ptr, ptr %2, align 8, !tbaa !41
  %4 = getelementptr inbounds nuw %struct.If_Obj_t_, ptr %3, i32 0, i32 7
  %5 = load ptr, ptr %4, align 8, !tbaa !56
  ret ptr %5
}

; Function Attrs: inlinehint nounwind uwtable
define internal ptr @If_ObjFanin0(ptr noundef %0) #3 {
  %2 = alloca ptr, align 8
  store ptr %0, ptr %2, align 8, !tbaa !41
  %3 = load ptr, ptr %2, align 8, !tbaa !41
  %4 = getelementptr inbounds nuw %struct.If_Obj_t_, ptr %3, i32 0, i32 6
  %5 = load ptr, ptr %4, align 8, !tbaa !55
  ret ptr %5
}

; Function Attrs: nounwind uwtable
define i32 @If_ManImproveNodeFaninCost(ptr noundef %0, ptr noundef %1) #0 {
  %3 = alloca ptr, align 8
  %4 = alloca ptr, align 8
  %5 = alloca i32, align 4
  store ptr %0, ptr %3, align 8, !tbaa !3
  store ptr %1, ptr %4, align 8, !tbaa !41
  call void @llvm.lifetime.start.p0(i64 4, ptr %5) #9
  store i32 0, ptr %5, align 4, !tbaa !38
  %6 = load ptr, ptr %4, align 8, !tbaa !41
  %7 = getelementptr inbounds nuw %struct.If_Obj_t_, ptr %6, i32 0, i32 3
  %8 = load i32, ptr %7, align 4, !tbaa !47
  %9 = icmp eq i32 %8, 0
  br i1 %9, label %10, label %13

10:                                               ; preds = %2
  %11 = load i32, ptr %5, align 4, !tbaa !38
  %12 = add nsw i32 %11, -1
  store i32 %12, ptr %5, align 4, !tbaa !38
  br label %13

13:                                               ; preds = %10, %2
  %14 = load ptr, ptr %4, align 8, !tbaa !41
  %15 = call ptr @If_ObjFanin0(ptr noundef %14)
  %16 = load i32, ptr %15, align 8
  %17 = lshr i32 %16, 8
  %18 = and i32 %17, 1
  %19 = icmp ne i32 %18, 0
  br i1 %19, label %29, label %20

20:                                               ; preds = %13
  %21 = load ptr, ptr %4, align 8, !tbaa !41
  %22 = call ptr @If_ObjFanin0(ptr noundef %21)
  %23 = getelementptr inbounds nuw %struct.If_Obj_t_, ptr %22, i32 0, i32 3
  %24 = load i32, ptr %23, align 4, !tbaa !47
  %25 = icmp eq i32 %24, 0
  br i1 %25, label %26, label %29

26:                                               ; preds = %20
  %27 = load i32, ptr %5, align 4, !tbaa !38
  %28 = add nsw i32 %27, 1
  store i32 %28, ptr %5, align 4, !tbaa !38
  br label %29

29:                                               ; preds = %26, %20, %13
  %30 = load ptr, ptr %4, align 8, !tbaa !41
  %31 = call ptr @If_ObjFanin1(ptr noundef %30)
  %32 = load i32, ptr %31, align 8
  %33 = lshr i32 %32, 8
  %34 = and i32 %33, 1
  %35 = icmp ne i32 %34, 0
  br i1 %35, label %45, label %36

36:                                               ; preds = %29
  %37 = load ptr, ptr %4, align 8, !tbaa !41
  %38 = call ptr @If_ObjFanin1(ptr noundef %37)
  %39 = getelementptr inbounds nuw %struct.If_Obj_t_, ptr %38, i32 0, i32 3
  %40 = load i32, ptr %39, align 4, !tbaa !47
  %41 = icmp eq i32 %40, 0
  br i1 %41, label %42, label %45

42:                                               ; preds = %36
  %43 = load i32, ptr %5, align 4, !tbaa !38
  %44 = add nsw i32 %43, 1
  store i32 %44, ptr %5, align 4, !tbaa !38
  br label %45

45:                                               ; preds = %42, %36, %29
  %46 = load i32, ptr %5, align 4, !tbaa !38
  call void @llvm.lifetime.end.p0(i64 4, ptr %5) #9
  ret i32 %46
}

; Function Attrs: inlinehint nounwind uwtable
define internal i32 @If_ObjIsCi(ptr noundef %0) #3 {
  %2 = alloca ptr, align 8
  store ptr %0, ptr %2, align 8, !tbaa !41
  %3 = load ptr, ptr %2, align 8, !tbaa !41
  %4 = load i32, ptr %3, align 8
  %5 = and i32 %4, 15
  %6 = icmp eq i32 %5, 2
  %7 = zext i1 %6 to i32
  ret i32 %7
}

; Function Attrs: inlinehint nounwind uwtable
define internal ptr @Vec_PtrEntry(ptr noundef %0, i32 noundef %1) #3 {
  %3 = alloca ptr, align 8
  %4 = alloca i32, align 4
  store ptr %0, ptr %3, align 8, !tbaa !39
  store i32 %1, ptr %4, align 4, !tbaa !38
  %5 = load ptr, ptr %3, align 8, !tbaa !39
  %6 = getelementptr inbounds nuw %struct.Vec_Ptr_t_, ptr %5, i32 0, i32 2
  %7 = load ptr, ptr %6, align 8, !tbaa !53
  %8 = load i32, ptr %4, align 4, !tbaa !38
  %9 = sext i32 %8 to i64
  %10 = getelementptr inbounds ptr, ptr %7, i64 %9
  %11 = load ptr, ptr %10, align 8, !tbaa !54
  ret ptr %11
}

; Function Attrs: inlinehint nounwind uwtable
define internal i32 @Vec_PtrSize(ptr noundef %0) #3 {
  %2 = alloca ptr, align 8
  store ptr %0, ptr %2, align 8, !tbaa !39
  %3 = load ptr, ptr %2, align 8, !tbaa !39
  %4 = getelementptr inbounds nuw %struct.Vec_Ptr_t_, ptr %3, i32 0, i32 1
  %5 = load i32, ptr %4, align 4, !tbaa !51
  ret i32 %5
}

; Function Attrs: nounwind uwtable
define i32 @If_ManImproveNodeFaninCompact2(ptr noundef %0, ptr noundef %1, i32 noundef %2, ptr noundef %3, ptr noundef %4) #0 {
  %6 = alloca i32, align 4
  %7 = alloca ptr, align 8
  %8 = alloca ptr, align 8
  %9 = alloca i32, align 4
  %10 = alloca ptr, align 8
  %11 = alloca ptr, align 8
  %12 = alloca ptr, align 8
  %13 = alloca i32, align 4
  %14 = alloca i32, align 4
  store ptr %0, ptr %7, align 8, !tbaa !3
  store ptr %1, ptr %8, align 8, !tbaa !41
  store i32 %2, ptr %9, align 4, !tbaa !38
  store ptr %3, ptr %10, align 8, !tbaa !39
  store ptr %4, ptr %11, align 8, !tbaa !39
  call void @llvm.lifetime.start.p0(i64 8, ptr %12) #9
  call void @llvm.lifetime.start.p0(i64 4, ptr %13) #9
  store i32 0, ptr %13, align 4, !tbaa !38
  br label %15

15:                                               ; preds = %42, %5
  %16 = load i32, ptr %13, align 4, !tbaa !38
  %17 = load ptr, ptr %10, align 8, !tbaa !39
  %18 = call i32 @Vec_PtrSize(ptr noundef %17)
  %19 = icmp slt i32 %16, %18
  br i1 %19, label %20, label %24

20:                                               ; preds = %15
  %21 = load ptr, ptr %10, align 8, !tbaa !39
  %22 = load i32, ptr %13, align 4, !tbaa !38
  %23 = call ptr @Vec_PtrEntry(ptr noundef %21, i32 noundef %22)
  store ptr %23, ptr %12, align 8, !tbaa !41
  br label %24

24:                                               ; preds = %20, %15
  %25 = phi i1 [ false, %15 ], [ true, %20 ]
  br i1 %25, label %26, label %45

26:                                               ; preds = %24
  %27 = load ptr, ptr %12, align 8, !tbaa !41
  %28 = call i32 @If_ObjIsCi(ptr noundef %27)
  %29 = icmp ne i32 %28, 0
  br i1 %29, label %30, label %31

30:                                               ; preds = %26
  br label %42

31:                                               ; preds = %26
  %32 = load ptr, ptr %7, align 8, !tbaa !3
  %33 = load ptr, ptr %12, align 8, !tbaa !41
  %34 = call i32 @If_ManImproveNodeFaninCost(ptr noundef %32, ptr noundef %33)
  %35 = icmp sle i32 %34, 0
  br i1 %35, label %36, label %41

36:                                               ; preds = %31
  %37 = load ptr, ptr %7, align 8, !tbaa !3
  %38 = load ptr, ptr %12, align 8, !tbaa !41
  %39 = load ptr, ptr %10, align 8, !tbaa !39
  %40 = load ptr, ptr %11, align 8, !tbaa !39
  call void @If_ManImproveNodeFaninUpdate(ptr noundef %37, ptr noundef %38, ptr noundef %39, ptr noundef %40)
  store i32 1, ptr %6, align 4
  store i32 1, ptr %14, align 4
  br label %46

41:                                               ; preds = %31
  br label %42

42:                                               ; preds = %41, %30
  %43 = load i32, ptr %13, align 4, !tbaa !38
  %44 = add nsw i32 %43, 1
  store i32 %44, ptr %13, align 4, !tbaa !38
  br label %15, !llvm.loop !62

45:                                               ; preds = %24
  store i32 0, ptr %6, align 4
  store i32 1, ptr %14, align 4
  br label %46

46:                                               ; preds = %45, %36
  call void @llvm.lifetime.end.p0(i64 4, ptr %13) #9
  call void @llvm.lifetime.end.p0(i64 8, ptr %12) #9
  %47 = load i32, ptr %6, align 4
  ret i32 %47
}