; Function Attrs: nounwind uwtable
define range(i32 0, 2) i32 @If_ManImproveNodeFaninCompact2(ptr noundef readnone captures(none) %0, ptr noundef readnone captures(none) %1, i32 noundef %2, ptr noundef captures(none) %3, ptr noundef captures(none) %4) local_unnamed_addr #0 {
  %6 = getelementptr i8, ptr %3, i64 4
  %.val = load i32, ptr %6, align 4, !tbaa !32
  %7 = icmp sgt i32 %.val, 0
  br i1 %7, label %.lr.ph, label %.critedge

.lr.ph:                                           ; preds = %5
  %8 = getelementptr i8, ptr %3, i64 8
  %.val13 = load ptr, ptr %8, align 8, !tbaa !35
  %wide.trip.count = zext nneg i32 %.val to i64
  br label %9

9:                                                ; preds = %.lr.ph, %36
  %indvars.iv = phi i64 [ 0, %.lr.ph ], [ %indvars.iv.next, %36 ]
  %10 = getelementptr inbounds nuw ptr, ptr %.val13, i64 %indvars.iv
  %11 = load ptr, ptr %10, align 8, !tbaa !37
  %.val14 = load i32, ptr %11, align 8
  %12 = and i32 %.val14, 15
  %.not = icmp eq i32 %12, 2
  br i1 %.not, label %36, label %13

13:                                               ; preds = %9
  %14 = getelementptr inbounds nuw i8, ptr %11, i64 12
  %15 = load i32, ptr %14, align 4, !tbaa !40
  %16 = icmp eq i32 %15, 0
  %spec.select.i = sext i1 %16 to i32
  %17 = getelementptr i8, ptr %11, i64 24
  %.val11.i = load ptr, ptr %17, align 8, !tbaa !45
  %18 = load i32, ptr %.val11.i, align 8
  %19 = and i32 %18, 256
  %.not.i = icmp eq i32 %19, 0
  br i1 %.not.i, label %20, label %25

20:                                               ; preds = %13
  %21 = getelementptr inbounds nuw i8, ptr %.val11.i, i64 12
  %22 = load i32, ptr %21, align 4, !tbaa !40
  %23 = icmp eq i32 %22, 0
  %not..i = xor i1 %16, true
  %24 = zext i1 %not..i to i32
  %spec.select9.i = select i1 %23, i32 %24, i32 %spec.select.i
  br label %25

25:                                               ; preds = %20, %13
  %.1.i = phi i32 [ %spec.select.i, %13 ], [ %spec.select9.i, %20 ]
  %26 = getelementptr i8, ptr %11, i64 32
  %.val13.i = load ptr, ptr %26, align 8, !tbaa !46
  %27 = load i32, ptr %.val13.i, align 8
  %28 = and i32 %27, 256
  %.not8.i = icmp eq i32 %28, 0
  br i1 %.not8.i, label %29, label %If_ManImproveNodeFaninCost.exit

29:                                               ; preds = %25
  %30 = getelementptr inbounds nuw i8, ptr %.val13.i, i64 12
  %31 = load i32, ptr %30, align 4, !tbaa !40
  %32 = icmp eq i32 %31, 0
  %33 = zext i1 %32 to i32
  %spec.select10.i = add nsw i32 %.1.i, %33
  br label %If_ManImproveNodeFaninCost.exit

If_ManImproveNodeFaninCost.exit:                  ; preds = %25, %29
  %.2.i = phi i32 [ %.1.i, %25 ], [ %spec.select10.i, %29 ]
  %34 = icmp slt i32 %.2.i, 1
  br i1 %34, label %35, label %36

35:                                               ; preds = %If_ManImproveNodeFaninCost.exit
  tail call void @If_ManImproveNodeFaninUpdate(ptr poison, ptr noundef nonnull %11, ptr noundef nonnull %3, ptr noundef %4)
  br label %.critedge

36:                                               ; preds = %If_ManImproveNodeFaninCost.exit, %9
  %indvars.iv.next = add nuw nsw i64 %indvars.iv, 1
  %exitcond.not = icmp eq i64 %indvars.iv.next, %wide.trip.count
  br i1 %exitcond.not, label %.critedge, label %9, !llvm.loop !72

.critedge:                                        ; preds = %36, %5, %35
  %.012 = phi i32 [ 1, %35 ], [ 0, %5 ], [ 0, %36 ]
  ret i32 %.012
}